; Function Attrs: mustprogress nounwind uwtable
define void @_ZN5faiss3lsq13LSQTimerScopeD2Ev(ptr noundef nonnull align 8 dereferenceable(49) %0) unnamed_addr #0 align 2 personality ptr @__gxx_personality_v0 {
  %2 = getelementptr inbounds i8, ptr %0, i64 48
  %3 = load i8, ptr %2, align 8
  %4 = and i8 %3, 1
  %.not.i = icmp eq i8 %4, 0
  br i1 %.not.i, label %5, label %_ZN5faiss3lsq13LSQTimerScope6finishEv.exit

5:                                                ; preds = %1
  %6 = invoke noundef double @_ZN5faiss12getmillisecsEv()
          to label %.noexc unwind label %17

.noexc:                                           ; preds = %5
  %7 = load double, ptr %0, align 8
  %8 = fsub double %6, %7
  %9 = getelementptr inbounds i8, ptr %0, i64 8
  %10 = load ptr, ptr %9, align 8
  %11 = getelementptr inbounds i8, ptr %0, i64 16
  %12 = invoke ptr @_ZNKSt10_HashtableINSt7__cxx1112basic_stringIcSt11char_traitsIcESaIcEEESt4pairIKS5_dESaIS8_ENSt8__detail10_Select1stESt8equal_toIS5_ESt4hashIS5_ENSA_18_Mod_range_hashingENSA_20_Default_ranged_hashENSA_20_Prime_rehash_policyENSA_17_Hashtable_traitsILb1ELb0ELb1EEEE4findERS7_(ptr noundef nonnull align 8 dereferenceable(56) %10, ptr noundef nonnull align 8 dereferenceable(32) %11)
          to label %.noexc1 unwind label %17

.noexc1:                                          ; preds = %.noexc
  %13 = invoke noundef nonnull align 8 dereferenceable(8) ptr @_ZNSt8__detail9_Map_baseINSt7__cxx1112basic_stringIcSt11char_traitsIcESaIcEEESt4pairIKS6_dESaIS9_ENS_10_Select1stESt8equal_toIS6_ESt4hashIS6_ENS_18_Mod_range_hashingENS_20_Default_ranged_hashENS_20_Prime_rehash_policyENS_17_Hashtable_traitsILb1ELb0ELb1EEELb1EEixERS8_(ptr noundef nonnull align 1 dereferenceable(1) %10, ptr noundef nonnull align 8 dereferenceable(32) %11)
          to label %.noexc2 unwind label %17

.noexc2:                                          ; preds = %.noexc1
  %.not.i.i.not.i.i = icmp eq ptr %12, null
  %14 = load double, ptr %13, align 8
  %15 = fadd double %8, %14
  %.sink.i.i = select i1 %.not.i.i.not.i.i, double %8, double %15
  store double %.sink.i.i, ptr %13, align 8
  store i8 1, ptr %2, align 8
  br label %_ZN5faiss3lsq13LSQTimerScope6finishEv.exit

_ZN5faiss3lsq13LSQTimerScope6finishEv.exit:       ; preds = %.noexc2, %1
  %16 = getelementptr inbounds i8, ptr %0, i64 16
  tail call void @_ZNSt7__cxx1112basic_stringIcSt11char_traitsIcESaIcEED1Ev(ptr noundef nonnull align 8 dereferenceable(32) %16) #12
  ret void

17:                                               ; preds = %.noexc1, %.noexc, %5
  %18 = landingpad { ptr, i32 }
          catch ptr null
  %19 = extractvalue { ptr, i32 } %18, 0
  tail call void @__clang_call_terminate(ptr %19) #28
  unreachable
}